target datalayout = "e-m:e-p270:32:32-p271:32:32-p272:64:64-i64:64-i128:128-f80:128-n8:16:32:64-S128"
target triple = "x86_64-pc-linux-gnu"

%struct.slurm_step_id_msg = type { i64, i32, i32, i32 }

; Function Attrs: nounwind uwtable
define dso_local zeroext i1 @verify_step_id(ptr noundef %0, ptr noundef %1) #0 {
  %3 = alloca i1, align 1
  %4 = alloca ptr, align 8
  %5 = alloca ptr, align 8
  store ptr %0, ptr %4, align 8
  store ptr %1, ptr %5, align 8
  %6 = load ptr, ptr %5, align 8
  %7 = getelementptr inbounds nuw %struct.slurm_step_id_msg, ptr %6, i32 0, i32 1
  %8 = load i32, ptr %7, align 8
  %9 = load ptr, ptr %4, align 8
  %10 = getelementptr inbounds nuw %struct.slurm_step_id_msg, ptr %9, i32 0, i32 1
  %11 = load i32, ptr %10, align 8
  %12 = icmp ne i32 %8, %11
  br i1 %12, label %13, label %14

13:                                               ; preds = %2
  store i1 false, ptr %3, align 1
  br label %43

14:                                               ; preds = %2
  %15 = load ptr, ptr %5, align 8
  %16 = getelementptr inbounds nuw %struct.slurm_step_id_msg, ptr %15, i32 0, i32 3
  %17 = load i32, ptr %16, align 8
  %18 = icmp eq i32 %17, -2
  br i1 %18, label %19, label %20

19:                                               ; preds = %14
  store i1 true, ptr %3, align 1
  br label %43

20:                                               ; preds = %14
  %21 = load ptr, ptr %5, align 8
  %22 = getelementptr inbounds nuw %struct.slurm_step_id_msg, ptr %21, i32 0, i32 3
  %23 = load i32, ptr %22, align 8
  %24 = load ptr, ptr %4, align 8
  %25 = getelementptr inbounds nuw %struct.slurm_step_id_msg, ptr %24, i32 0, i32 3
  %26 = load i32, ptr %25, align 8
  %27 = icmp eq i32 %23, %26
  br i1 %27, label %28, label %42

28:                                               ; preds = %20
  %29 = load ptr, ptr %5, align 8
  %30 = getelementptr inbounds nuw %struct.slurm_step_id_msg, ptr %29, i32 0, i32 2
  %31 = load i32, ptr %30, align 4
  %32 = load ptr, ptr %4, align 8
  %33 = getelementptr inbounds nuw %struct.slurm_step_id_msg, ptr %32, i32 0, i32 2
  %34 = load i32, ptr %33, align 4
  %35 = icmp eq i32 %31, %34
  br i1 %35, label %41, label %36

36:                                               ; preds = %28
  %37 = load ptr, ptr %5, align 8
  %38 = getelementptr inbounds nuw %struct.slurm_step_id_msg, ptr %37, i32 0, i32 2
  %39 = load i32, ptr %38, align 4
  %40 = icmp eq i32 %39, -2
  br i1 %40, label %41, label %42

41:                                               ; preds = %36, %28
  store i1 true, ptr %3, align 1
  br label %43

42:                                               ; preds = %36, %20
  store i1 false, ptr %3, align 1
  br label %43

43:                                               ; preds = %42, %41, %19, %13
  %44 = load i1, ptr %3, align 1
  ret i1 %44
}