; Function Attrs: mustprogress nofree norecurse nosync nounwind willreturn memory(argmem: read) uwtable
define dso_local noundef zeroext i1 @verify_step_id(ptr noundef readonly captures(none) %0, ptr noundef readonly captures(none) %1) local_unnamed_addr #10 {
  %3 = getelementptr inbounds nuw i8, ptr %1, i64 8
  %4 = load i32, ptr %3, align 8
  %5 = getelementptr inbounds nuw i8, ptr %0, i64 8
  %6 = load i32, ptr %5, align 8
  %.not = icmp eq i32 %4, %6
  br i1 %.not, label %7, label %23

7:                                                ; preds = %2
  %8 = getelementptr inbounds nuw i8, ptr %1, i64 16
  %9 = load i32, ptr %8, align 8
  %10 = icmp eq i32 %9, -2
  br i1 %10, label %23, label %11

11:                                               ; preds = %7
  %12 = getelementptr inbounds nuw i8, ptr %0, i64 16
  %13 = load i32, ptr %12, align 8
  %14 = icmp eq i32 %9, %13
  br i1 %14, label %15, label %22

15:                                               ; preds = %11
  %16 = getelementptr inbounds nuw i8, ptr %1, i64 12
  %17 = load i32, ptr %16, align 4
  %18 = getelementptr inbounds nuw i8, ptr %0, i64 12
  %19 = load i32, ptr %18, align 4
  %20 = icmp eq i32 %17, %19
  %21 = icmp eq i32 %17, -2
  %or.cond = or i1 %21, %20
  br i1 %or.cond, label %23, label %22

22:                                               ; preds = %15, %11
  br label %23

23:                                               ; preds = %15, %7, %2, %22
  %.0 = phi i1 [ false, %22 ], [ false, %2 ], [ true, %7 ], [ true, %15 ]
  ret i1 %.0
}